Certificate:
    Data:
        Version: 3 (0x2)
        Serial Number: 2 (0x2)
        Signature Algorithm: sha256WithRSAEncryption
        Issuer: C=FR, ST=Radius, L=Somewhere, O=Example Inc./emailAddress=admin@example.org, CN=Example Certificate Authority
        Validity
            Not Before: Jan 31 13:01:46 2025 GMT
            Not After : Apr  1 13:01:46 2025 GMT
        Subject: C=FR, ST=Radius, O=Example Inc., CN=user@example.org/emailAddress=user@example.org
        Subject Public Key Info:
            Public Key Algorithm: rsaEncryption
                Public-Key: (2048 bit)
                Modulus:
                    00:a5:ca:e7:05:c3:c6:94:49:84:71:6c:93:91:88:
                    eb:7f:9c:b9:83:1c:41:1b:44:ec:82:54:a3:16:6c:
                    f5:b8:c4:07:38:3d:7d:4b:21:47:41:70:34:b3:96:
                    98:46:45:c8:c2:18:53:7f:22:fe:9c:63:09:14:05:
                    aa:04:02:8a:ec:87:20:75:09:00:37:55:81:5b:44:
                    fd:47:7f:68:ea:ac:40:7a:3e:86:76:57:f7:a3:83:
                    bb:a4:c1:a1:23:99:f5:59:2a:ae:c4:12:6c:38:bc:
                    9b:89:5f:66:ec:b1:c5:14:93:56:a7:52:a8:ff:7c:
                    93:31:2a:e2:b2:26:8e:56:48:4e:87:4f:b3:74:f0:
                    61:c8:68:46:a7:35:8a:4a:12:c6:f7:bc:13:6b:8e:
                    7e:33:6e:2e:39:ac:0c:89:98:2d:7c:34:d9:3e:bb:
                    ee:52:68:d4:c0:1d:57:ef:ca:a1:99:d8:f4:66:20:
                    2d:41:ba:c0:7d:83:ab:dd:fd:de:da:bb:67:69:26:
                    80:1a:0c:3e:a3:52:44:13:29:b3:a8:fc:94:6e:69:
                    44:b3:a8:e6:7e:1d:9a:50:7e:68:e9:c2:20:2b:6b:
                    2e:72:bd:ae:86:2b:65:f4:9b:eb:ea:1e:72:8a:6d:
                    83:2d:83:ef:10:9e:a1:31:a7:9d:5d:fc:ab:e2:b7:
                    fe:13
                Exponent: 65537 (0x10001)
        X509v3 extensions:
            X509v3 Extended Key Usage: 
                TLS Web Client Authentication
            X509v3 CRL Distribution Points: 
                Full Name:
                  URI:http://www.example.com/example_ca.crl
            X509v3 Subject Key Identifier: 
                A1:DB:F3:CA:FF:FD:92:BF:5D:DF:E7:F2:AE:87:4A:83:80:72:ED:18
            X509v3 Authority Key Identifier: 
                06:ED:55:4C:56:30:27:00:5F:60:05:DD:71:C6:0D:57:00:20:73:4A
    Signature Algorithm: sha256WithRSAEncryption
    Signature Value:
        82:40:99:8e:7d:82:c2:fe:c0:2a:d0:1d:ab:30:be:91:c6:e7:
        2f:d7:04:48:58:88:3b:b3:c2:d0:87:64:04:f7:38:10:a4:5e:
        ab:9e:18:ac:e8:cf:12:69:27:a7:66:af:90:9f:cc:0b:9e:1f:
        c7:4d:4d:2b:32:15:30:b0:85:9f:c8:f1:e9:d8:3a:4b:41:89:
        f9:4a:52:08:d6:51:05:59:7d:3f:af:48:10:20:14:98:eb:38:
        af:e7:60:da:ec:ff:b1:0b:e5:99:32:fc:75:9e:71:77:37:f5:
        18:b7:7f:5f:a1:1d:8c:ff:86:ed:ba:48:0b:18:fb:2d:7c:b5:
        a7:b5:66:64:be:08:77:57:a1:fe:89:63:9b:44:1f:2d:cc:ba:
        dc:5a:a1:0b:8e:3f:ca:d9:19:18:dd:07:28:d6:7c:f8:14:62:
        f6:23:47:af:dc:b9:f9:0c:92:99:7d:14:05:16:e0:f2:cd:0e:
        9a:14:ef:b1:b0:b9:87:c4:2c:d8:53:32:74:98:71:d3:d6:be:
        7f:f0:5c:8d:8b:35:a6:9e:e8:d2:94:e4:a4:c1:0b:65:a0:27:
        b6:78:59:9b:e7:7a:f4:8c:b4:79:28:79:3c:e0:9f:a2:28:89:
        7f:41:00:e4:33:27:7d:94:b9:9b:24:eb:43:9a:a7:04:86:55:
        5b:ae:ff:fd
-----BEGIN CERTIFICATE-----
MIIEETCCAvmgAwIBAgIBAjANBgkqhkiG9w0BAQsFADCBkzELMAkGA1UEBhMCRlIx
DzANBgNVBAgMBlJhZGl1czESMBAGA1UEBwwJU29tZXdoZXJlMRUwEwYDVQQKDAxF
eGFtcGxlIEluYy4xIDAeBgkqhkiG9w0BCQEWEWFkbWluQGV4YW1wbGUub3JnMSYw
JAYDVQQDDB1FeGFtcGxlIENlcnRpZmljYXRlIEF1dGhvcml0eTAeFw0yNTAxMzEx
MzAxNDZaFw0yNTA0MDExMzAxNDZaMHExCzAJBgNVBAYTAkZSMQ8wDQYDVQQIDAZS
YWRpdXMxFTATBgNVBAoMDEV4YW1wbGUgSW5jLjEZMBcGA1UEAwwQdXNlckBleGFt
cGxlLm9yZzEfMB0GCSqGSIb3DQEJARYQdXNlckBleGFtcGxlLm9yZzCCASIwDQYJ
KoZIhvcNAQEBBQADggEPADCCAQoCggEBAKXK5wXDxpRJhHFsk5GI63+cuYMcQRtE
7IJUoxZs9bjEBzg9fUshR0FwNLOWmEZFyMIYU38i/pxjCRQFqgQCiuyHIHUJADdV
gVtE/Ud/aOqsQHo+hnZX96ODu6TBoSOZ9VkqrsQSbDi8m4lfZuyxxRSTVqdSqP98
kzEq4rImjlZITodPs3TwYchoRqc1ikoSxve8E2uOfjNuLjmsDImYLXw02T677lJo
1MAdV+/KoZnY9GYgLUG6wH2Dq9393tq7Z2kmgBoMPqNSRBMps6j8lG5pRLOo5n4d
mlB+aOnCICtrLnK9roYrZfSb6+oecoptgy2D7xCeoTGnnV38q+K3/hMCAwEAAaOB
kDCBjTATBgNVHSUEDDAKBggrBgEFBQcDAjA2BgNVHR8ELzAtMCugKaAnhiVodHRw
Oi8vd3d3LmV4YW1wbGUuY29tL2V4YW1wbGVfY2EuY3JsMB0GA1UdDgQWBBSh2/PK
//2Sv13f5/Kuh0qDgHLtGDAfBgNVHSMEGDAWgBQG7VVMVjAnAF9gBd1xxg1XACBz
SjANBgkqhkiG9w0BAQsFAAOCAQEAgkCZjn2Cwv7AKtAdqzC+kcbnL9cESFiIO7PC
0IdkBPc4EKReq54YrOjPEmknp2avkJ/MC54fx01NKzIVMLCFn8jx6dg6S0GJ+UpS
CNZRBVl9P69IECAUmOs4r+dg2uz/sQvlmTL8dZ5xdzf1GLd/X6EdjP+G7bpICxj7
LXy1p7VmZL4Id1eh/oljm0QfLcy63FqhC44/ytkZGN0HKNZ8+BRi9iNHr9y5+QyS
mX0UBRbg8s0OmhTvsbC5h8Qs2FMydJhx09a+f/BcjYs1pp7o0pTkpMELZaAntnhZ
m+d69Iy0eSh5POCfoiiJf0EA5DMnfZS5myTrQ5qnBIZVW67//Q==
-----END CERTIFICATE-----
